target datalayout = "e-m:e-p270:32:32-p271:32:32-p272:64:64-i64:64-i128:128-f80:128-n8:16:32:64-S128"
target triple = "x86_64-pc-linux-gnu"

%struct.cli_exe_section = type { i32, i32, i32, i32, i32, i32, i32, i32, i32 }

; Function Attrs: nounwind uwtable
define i32 @cli_rawaddr(i32 noundef %0, ptr noundef %1, i16 noundef zeroext %2, ptr noundef %3, i64 noundef %4, i32 noundef %5) #0 {
  %7 = alloca i32, align 4
  %8 = alloca i32, align 4
  %9 = alloca ptr, align 8
  %10 = alloca i16, align 2
  %11 = alloca ptr, align 8
  %12 = alloca i64, align 8
  %13 = alloca i32, align 4
  %14 = alloca i32, align 4
  %15 = alloca i32, align 4
  %16 = alloca i32, align 4
  store i32 %0, ptr %8, align 4
  store ptr %1, ptr %9, align 8
  store i16 %2, ptr %10, align 2
  store ptr %3, ptr %11, align 8
  store i64 %4, ptr %12, align 8
  store i32 %5, ptr %13, align 4
  store i32 0, ptr %15, align 4
  %17 = load i32, ptr %8, align 4
  %18 = load i32, ptr %13, align 4
  %19 = icmp ult i32 %17, %18
  br i1 %19, label %20, label %30

20:                                               ; preds = %6
  %21 = load i32, ptr %8, align 4
  %22 = zext i32 %21 to i64
  %23 = load i64, ptr %12, align 8
  %24 = icmp uge i64 %22, %23
  br i1 %24, label %25, label %27

25:                                               ; preds = %20
  %26 = load ptr, ptr %11, align 8
  store i32 1, ptr %26, align 4
  store i32 0, ptr %7, align 4
  br label %98

27:                                               ; preds = %20
  %28 = load ptr, ptr %11, align 8
  store i32 0, ptr %28, align 4
  %29 = load i32, ptr %8, align 4
  store i32 %29, ptr %7, align 4
  br label %98

30:                                               ; preds = %6
  %31 = load i16, ptr %10, align 2
  %32 = zext i16 %31 to i32
  %33 = sub nsw i32 %32, 1
  store i32 %33, ptr %14, align 4
  br label %34

34:                                               ; preds = %72, %30
  %35 = load i32, ptr %14, align 4
  %36 = icmp sge i32 %35, 0
  br i1 %36, label %37, label %75

37:                                               ; preds = %34
  %38 = load ptr, ptr %9, align 8
  %39 = load i32, ptr %14, align 4
  %40 = sext i32 %39 to i64
  %41 = getelementptr inbounds %struct.cli_exe_section, ptr %38, i64 %40
  %42 = getelementptr inbounds %struct.cli_exe_section, ptr %41, i32 0, i32 3
  %43 = load i32, ptr %42, align 4
  %44 = icmp ne i32 %43, 0
  br i1 %44, label %45, label %71

45:                                               ; preds = %37
  %46 = load ptr, ptr %9, align 8
  %47 = load i32, ptr %14, align 4
  %48 = sext i32 %47 to i64
  %49 = getelementptr inbounds %struct.cli_exe_section, ptr %46, i64 %48
  %50 = getelementptr inbounds %struct.cli_exe_section, ptr %49, i32 0, i32 0
  %51 = load i32, ptr %50, align 4
  %52 = load i32, ptr %8, align 4
  %53 = icmp ule i32 %51, %52
  br i1 %53, label %54, label %71

54:                                               ; preds = %45
  %55 = load ptr, ptr %9, align 8
  %56 = load i32, ptr %14, align 4
  %57 = sext i32 %56 to i64
  %58 = getelementptr inbounds %struct.cli_exe_section, ptr %55, i64 %57
  %59 = getelementptr inbounds %struct.cli_exe_section, ptr %58, i32 0, i32 3
  %60 = load i32, ptr %59, align 4
  %61 = load i32, ptr %8, align 4
  %62 = load ptr, ptr %9, align 8
  %63 = load i32, ptr %14, align 4
  %64 = sext i32 %63 to i64
  %65 = getelementptr inbounds %struct.cli_exe_section, ptr %62, i64 %64
  %66 = getelementptr inbounds %struct.cli_exe_section, ptr %65, i32 0, i32 0
  %67 = load i32, ptr %66, align 4
  %68 = sub i32 %61, %67
  %69 = icmp ugt i32 %60, %68
  br i1 %69, label %70, label %71

70:                                               ; preds = %54
  store i32 1, ptr %15, align 4
  br label %75

71:                                               ; preds = %54, %45, %37
  br label %72

72:                                               ; preds = %71
  %73 = load i32, ptr %14, align 4
  %74 = add nsw i32 %73, -1
  store i32 %74, ptr %14, align 4
  br label %34

75:                                               ; preds = %70, %34
  %76 = load i32, ptr %15, align 4
  %77 = icmp ne i32 %76, 0
  br i1 %77, label %80, label %78

78:                                               ; preds = %75
  %79 = load ptr, ptr %11, align 8
  store i32 1, ptr %79, align 4
  store i32 0, ptr %7, align 4
  br label %98

80:                                               ; preds = %75
  %81 = load i32, ptr %8, align 4
  %82 = load ptr, ptr %9, align 8
  %83 = load i32, ptr %14, align 4
  %84 = sext i32 %83 to i64
  %85 = getelementptr inbounds %struct.cli_exe_section, ptr %82, i64 %84
  %86 = getelementptr inbounds %struct.cli_exe_section, ptr %85, i32 0, i32 0
  %87 = load i32, ptr %86, align 4
  %88 = sub i32 %81, %87
  %89 = load ptr, ptr %9, align 8
  %90 = load i32, ptr %14, align 4
  %91 = sext i32 %90 to i64
  %92 = getelementptr inbounds %struct.cli_exe_section, ptr %89, i64 %91
  %93 = getelementptr inbounds %struct.cli_exe_section, ptr %92, i32 0, i32 2
  %94 = load i32, ptr %93, align 4
  %95 = add i32 %88, %94
  store i32 %95, ptr %16, align 4
  %96 = load ptr, ptr %11, align 8
  store i32 0, ptr %96, align 4
  %97 = load i32, ptr %16, align 4
  store i32 %97, ptr %7, align 4
  br label %98

98:                                               ; preds = %80, %78, %27, %25
  %99 = load i32, ptr %7, align 4
  ret i32 %99
}