; Function Attrs: nofree norecurse nosync nounwind memory(argmem: readwrite) uwtable
define i32 @cli_rawaddr(i32 noundef %0, ptr nocapture noundef readonly %1, i16 noundef zeroext %2, ptr nocapture noundef writeonly %3, i64 noundef %4, i32 noundef %5) local_unnamed_addr #0 {
  %7 = icmp ult i32 %0, %5
  br i1 %7, label %8, label %10

8:                                                ; preds = %6
  %9 = zext i32 %0 to i64
  %.not36 = icmp uge i64 %9, %4
  %. = zext i1 %.not36 to i32
  %.44 = select i1 %.not36, i32 0, i32 %0
  br label %.critedge

10:                                               ; preds = %6
  %11 = icmp eq i16 %2, 0
  br i1 %11, label %.critedge, label %.lr.ph.preheader

.lr.ph.preheader:                                 ; preds = %10
  %12 = zext i16 %2 to i64
  br label %.lr.ph

.lr.ph:                                           ; preds = %.lr.ph.preheader, %20
  %indvars.iv = phi i64 [ %12, %.lr.ph.preheader ], [ %indvars.iv.next, %20 ]
  %indvars.iv.next = add nsw i64 %indvars.iv, -1
  %13 = getelementptr inbounds %struct.cli_exe_section, ptr %1, i64 %indvars.iv.next
  %14 = getelementptr inbounds i8, ptr %13, i64 12
  %15 = load i32, ptr %14, align 4
  %.not = icmp eq i32 %15, 0
  br i1 %.not, label %20, label %16

16:                                               ; preds = %.lr.ph
  %17 = load i32, ptr %13, align 4
  %.not34 = icmp ule i32 %17, %0
  %18 = sub i32 %0, %17
  %19 = icmp ugt i32 %15, %18
  %or.cond = and i1 %.not34, %19
  br i1 %or.cond, label %22, label %20

20:                                               ; preds = %.lr.ph, %16
  %21 = icmp ult i64 %indvars.iv, 2
  br i1 %21, label %.critedge, label %.lr.ph

22:                                               ; preds = %16
  %23 = and i64 %indvars.iv.next, 4294967295
  %24 = getelementptr inbounds %struct.cli_exe_section, ptr %1, i64 %23
  %25 = load i32, ptr %24, align 4
  %26 = sub i32 %0, %25
  %27 = getelementptr inbounds i8, ptr %24, i64 8
  %28 = load i32, ptr %27, align 4
  %29 = add i32 %26, %28
  br label %.critedge

.critedge:                                        ; preds = %20, %10, %8, %22
  %.sink = phi i32 [ 0, %22 ], [ %., %8 ], [ 1, %10 ], [ 1, %20 ]
  %.0 = phi i32 [ %29, %22 ], [ %.44, %8 ], [ 0, %10 ], [ 0, %20 ]
  store i32 %.sink, ptr %3, align 4
  ret i32 %.0
}